target datalayout = "e-m:e-p270:32:32-p271:32:32-p272:64:64-i64:64-i128:128-f80:128-n8:16:32:64-S128"
target triple = "x86_64-pc-linux-gnu"

%"class.std::__cxx11::basic_string" = type { %"struct.std::__cxx11::basic_string<char>::_Alloc_hider", i64, %union.anon }
%"struct.std::__cxx11::basic_string<char>::_Alloc_hider" = type { ptr }
%union.anon = type { i64, [8 x i8] }
%"class.rocksdb::BlockHandle" = type { i64, i64 }
%"class.rocksdb::PartitionedFilterBlockBuilder" = type <{ %"class.rocksdb::FullFilterBlockBuilder", ptr, i64, i8, [7 x i8], %"class.std::deque", i32, [4 x i8], i64, %"class.rocksdb::Status", %"class.std::__cxx11::basic_string", %"class.rocksdb::BlockBuilder", %"class.rocksdb::BlockBuilder", %"class.rocksdb::BlockHandle", i8, [7 x i8] }>
%"class.rocksdb::FullFilterBlockBuilder" = type { %"class.rocksdb::FilterBlockBuilder", %"class.std::unique_ptr", ptr, i8, %"class.std::unique_ptr.2" }
%"class.rocksdb::FilterBlockBuilder" = type { ptr }
%"class.std::unique_ptr" = type { %"struct.std::__uniq_ptr_data" }
%"struct.std::__uniq_ptr_data" = type { %"class.std::__uniq_ptr_impl" }
%"class.std::__uniq_ptr_impl" = type { %"class.std::tuple" }
%"class.std::tuple" = type { %"struct.std::_Tuple_impl" }
%"struct.std::_Tuple_impl" = type { %"struct.std::_Head_base.1" }
%"struct.std::_Head_base.1" = type { ptr }
%"class.std::unique_ptr.2" = type { %"struct.std::__uniq_ptr_data.3" }
%"struct.std::__uniq_ptr_data.3" = type { %"class.std::__uniq_ptr_impl.4" }
%"class.std::__uniq_ptr_impl.4" = type { %"class.std::tuple.5" }
%"class.std::tuple.5" = type { %"struct.std::_Tuple_impl.6" }
%"struct.std::_Tuple_impl.6" = type { %"struct.std::_Head_base.9" }
%"struct.std::_Head_base.9" = type { ptr }
%"class.std::deque" = type { %"class.std::_Deque_base" }
%"class.std::_Deque_base" = type { %"struct.std::_Deque_base<rocksdb::PartitionedFilterBlockBuilder::FilterEntry, std::allocator<rocksdb::PartitionedFilterBlockBuilder::FilterEntry>>::_Deque_impl" }
%"struct.std::_Deque_base<rocksdb::PartitionedFilterBlockBuilder::FilterEntry, std::allocator<rocksdb::PartitionedFilterBlockBuilder::FilterEntry>>::_Deque_impl" = type { %"struct.std::_Deque_base<rocksdb::PartitionedFilterBlockBuilder::FilterEntry, std::allocator<rocksdb::PartitionedFilterBlockBuilder::FilterEntry>>::_Deque_impl_data" }
%"struct.std::_Deque_base<rocksdb::PartitionedFilterBlockBuilder::FilterEntry, std::allocator<rocksdb::PartitionedFilterBlockBuilder::FilterEntry>>::_Deque_impl_data" = type { ptr, i64, %"struct.std::_Deque_iterator", %"struct.std::_Deque_iterator" }
%"struct.std::_Deque_iterator" = type { ptr, ptr, ptr, ptr }
%"class.rocksdb::Status" = type { i8, i8, i8, i8, i8, i8, %"class.std::unique_ptr.2" }
%"class.rocksdb::BlockBuilder" = type { i32, i8, i8, i64, i8, %"class.std::__cxx11::basic_string", %"class.std::vector.16", i64, i32, i8, %"class.std::__cxx11::basic_string", %"class.rocksdb::DataBlockHashIndexBuilder" }
%"class.std::vector.16" = type { %"struct.std::_Vector_base.17" }
%"struct.std::_Vector_base.17" = type { %"struct.std::_Vector_base<unsigned int, std::allocator<unsigned int>>::_Vector_impl" }
%"struct.std::_Vector_base<unsigned int, std::allocator<unsigned int>>::_Vector_impl" = type { %"struct.std::_Vector_base<unsigned int, std::allocator<unsigned int>>::_Vector_impl_data" }
%"struct.std::_Vector_base<unsigned int, std::allocator<unsigned int>>::_Vector_impl_data" = type { ptr, ptr, ptr }
%"class.rocksdb::DataBlockHashIndexBuilder" = type { double, double, i8, %"class.std::vector.21" }
%"class.std::vector.21" = type { %"struct.std::_Vector_base.22" }
%"struct.std::_Vector_base.22" = type { %"struct.std::_Vector_base<std::pair<unsigned int, unsigned char>, std::allocator<std::pair<unsigned int, unsigned char>>>::_Vector_impl" }
%"struct.std::_Vector_base<std::pair<unsigned int, unsigned char>, std::allocator<std::pair<unsigned int, unsigned char>>>::_Vector_impl" = type { %"struct.std::_Vector_base<std::pair<unsigned int, unsigned char>, std::allocator<std::pair<unsigned int, unsigned char>>>::_Vector_impl_data" }
%"struct.std::_Vector_base<std::pair<unsigned int, unsigned char>, std::allocator<std::pair<unsigned int, unsigned char>>>::_Vector_impl_data" = type { ptr, ptr, ptr }
%"class.rocksdb::PartitionedIndexBuilder" = type { %"class.rocksdb::IndexBuilder", i64, i64, %"class.std::__cxx11::list", %"class.rocksdb::BlockBuilder", %"class.rocksdb::BlockBuilder", %"class.std::unique_ptr.29", %"class.std::unique_ptr.37", i8, ptr, i8, i8, i8, i8, %"class.rocksdb::BlockHandle" }
%"class.rocksdb::IndexBuilder" = type { ptr, ptr, i64, i8, i64 }
%"class.std::__cxx11::list" = type { %"class.std::__cxx11::_List_base" }
%"class.std::__cxx11::_List_base" = type { %"struct.std::__cxx11::_List_base<rocksdb::PartitionedIndexBuilder::Entry, std::allocator<rocksdb::PartitionedIndexBuilder::Entry>>::_List_impl" }
%"struct.std::__cxx11::_List_base<rocksdb::PartitionedIndexBuilder::Entry, std::allocator<rocksdb::PartitionedIndexBuilder::Entry>>::_List_impl" = type { %"struct.std::__detail::_List_node_header" }
%"struct.std::__detail::_List_node_header" = type { %"struct.std::__detail::_List_node_base", i64 }
%"struct.std::__detail::_List_node_base" = type { ptr, ptr }
%"class.std::unique_ptr.29" = type { %"struct.std::__uniq_ptr_data.30" }
%"struct.std::__uniq_ptr_data.30" = type { %"class.std::__uniq_ptr_impl.31" }
%"class.std::__uniq_ptr_impl.31" = type { %"class.std::tuple.32" }
%"class.std::tuple.32" = type { %"struct.std::_Tuple_impl.33" }
%"struct.std::_Tuple_impl.33" = type { %"struct.std::_Head_base.36" }
%"struct.std::_Head_base.36" = type { ptr }
%"class.std::unique_ptr.37" = type { %"struct.std::__uniq_ptr_data.38" }
%"struct.std::__uniq_ptr_data.38" = type { %"class.std::__uniq_ptr_impl.39" }
%"class.std::__uniq_ptr_impl.39" = type { %"class.std::tuple.40" }
%"class.std::tuple.40" = type { %"struct.std::_Tuple_impl.41" }
%"struct.std::_Tuple_impl.41" = type { %"struct.std::_Head_base.44" }
%"struct.std::_Head_base.44" = type { ptr }

; Function Attrs: mustprogress nounwind uwtable
define linkonce_odr noundef nonnull align 8 dereferenceable(8) ptr @_ZNSt10_Head_baseILm0EPN7rocksdb17FilterBitsBuilderELb0EE7_M_headERKS3_(ptr noundef nonnull align 8 dereferenceable(8) %0) #4 comdat align 2 {
  %2 = alloca ptr, align 8
  store ptr %0, ptr %2, align 8, !tbaa !686
  %3 = load ptr, ptr %2, align 8, !tbaa !686
  %4 = getelementptr inbounds nuw %"struct.std::_Head_base.1", ptr %3, i32 0, i32 0
  ret ptr %4
}

; Function Attrs: mustprogress nounwind uwtable
define linkonce_odr noundef nonnull align 8 dereferenceable(8) ptr @_ZNSt11_Tuple_implILm0EJPN7rocksdb17FilterBitsBuilderESt14default_deleteIS1_EEE7_M_headERKS5_(ptr noundef nonnull align 8 dereferenceable(8) %0) #4 comdat align 2 {
  %2 = alloca ptr, align 8
  store ptr %0, ptr %2, align 8, !tbaa !684
  %3 = load ptr, ptr %2, align 8, !tbaa !684
  %4 = call noundef nonnull align 8 dereferenceable(8) ptr @_ZNSt10_Head_baseILm0EPN7rocksdb17FilterBitsBuilderELb0EE7_M_headERKS3_(ptr noundef nonnull align 8 dereferenceable(8) %3) #5
  ret ptr %4
}

; Function Attrs: mustprogress nounwind uwtable
define linkonce_odr noundef nonnull align 8 dereferenceable(8) ptr @_ZSt12__get_helperILm0EPN7rocksdb17FilterBitsBuilderEJSt14default_deleteIS1_EEERKT0_RKSt11_Tuple_implIXT_EJS5_DpT1_EE(ptr noundef nonnull align 8 dereferenceable(8) %0) #4 comdat {
  %2 = alloca ptr, align 8
  store ptr %0, ptr %2, align 8, !tbaa !684
  %3 = load ptr, ptr %2, align 8, !tbaa !684
  %4 = call noundef nonnull align 8 dereferenceable(8) ptr @_ZNSt11_Tuple_implILm0EJPN7rocksdb17FilterBitsBuilderESt14default_deleteIS1_EEE7_M_headERKS5_(ptr noundef nonnull align 8 dereferenceable(8) %3) #5
  ret ptr %4
}

; Function Attrs: mustprogress nounwind uwtable
define linkonce_odr noundef nonnull align 8 dereferenceable(8) ptr @_ZSt3getILm0EJPN7rocksdb17FilterBitsBuilderESt14default_deleteIS1_EEERKNSt13tuple_elementIXT_ESt5tupleIJDpT0_EEE4typeERKS9_(ptr noundef nonnull align 8 dereferenceable(8) %0) #4 comdat {
  %2 = alloca ptr, align 8
  store ptr %0, ptr %2, align 8, !tbaa !682
  %3 = load ptr, ptr %2, align 8, !tbaa !682
  %4 = call noundef nonnull align 8 dereferenceable(8) ptr @_ZSt12__get_helperILm0EPN7rocksdb17FilterBitsBuilderEJSt14default_deleteIS1_EEERKT0_RKSt11_Tuple_implIXT_EJS5_DpT1_EE(ptr noundef nonnull align 8 dereferenceable(8) %3) #5
  ret ptr %4
}

; Function Attrs: mustprogress nounwind uwtable
define linkonce_odr noundef ptr @_ZNKSt15__uniq_ptr_implIN7rocksdb17FilterBitsBuilderESt14default_deleteIS1_EE6_M_ptrEv(ptr noundef nonnull align 8 dereferenceable(8) %0) #4 comdat align 2 {
  %2 = alloca ptr, align 8
  store ptr %0, ptr %2, align 8, !tbaa !678
  %3 = load ptr, ptr %2, align 8
  %4 = getelementptr inbounds nuw %"class.std::__uniq_ptr_impl", ptr %3, i32 0, i32 0
  %5 = call noundef nonnull align 8 dereferenceable(8) ptr @_ZSt3getILm0EJPN7rocksdb17FilterBitsBuilderESt14default_deleteIS1_EEERKNSt13tuple_elementIXT_ESt5tupleIJDpT0_EEE4typeERKS9_(ptr noundef nonnull align 8 dereferenceable(8) %4) #5
  %6 = load ptr, ptr %5, align 8, !tbaa !29
  ret ptr %6
}

; Function Attrs: mustprogress nounwind uwtable
define linkonce_odr noundef ptr @_ZNKSt10unique_ptrIN7rocksdb17FilterBitsBuilderESt14default_deleteIS1_EE3getEv(ptr noundef nonnull align 8 dereferenceable(8) %0) #4 comdat align 2 {
  %2 = alloca ptr, align 8
  store ptr %0, ptr %2, align 8, !tbaa !104
  %3 = load ptr, ptr %2, align 8
  %4 = getelementptr inbounds nuw %"class.std::unique_ptr", ptr %3, i32 0, i32 0
  %5 = call noundef ptr @_ZNKSt15__uniq_ptr_implIN7rocksdb17FilterBitsBuilderESt14default_deleteIS1_EE6_M_ptrEv(ptr noundef nonnull align 8 dereferenceable(8) %4) #5
  ret ptr %5
}

; Function Attrs: inlinehint mustprogress nounwind uwtable
define linkonce_odr noundef zeroext i1 @_ZN7rocksdb23PartitionedIndexBuilder20ShouldCutFilterBlockEv(ptr noundef nonnull align 8 dereferenceable(488) %0) #1 comdat align 2 {
  %2 = alloca i1, align 1
  %3 = alloca ptr, align 8
  store ptr %0, ptr %3, align 8, !tbaa !33
  %4 = load ptr, ptr %3, align 8
  %5 = getelementptr inbounds nuw %"class.rocksdb::PartitionedIndexBuilder", ptr %4, i32 0, i32 13
  %6 = load i8, ptr %5, align 1, !tbaa !112, !range !35, !noundef !36
  %7 = trunc i8 %6 to i1
  br i1 %7, label %8, label %10

8:                                                ; preds = %1
  %9 = getelementptr inbounds nuw %"class.rocksdb::PartitionedIndexBuilder", ptr %4, i32 0, i32 13
  store i8 0, ptr %9, align 1, !tbaa !112
  store i1 true, ptr %2, align 1
  br label %11

10:                                               ; preds = %1
  store i1 false, ptr %2, align 1
  br label %11

11:                                               ; preds = %10, %8
  %12 = load i1, ptr %2, align 1
  ret i1 %12
}

; Function Attrs: mustprogress nounwind uwtable
define linkonce_odr noundef ptr @_ZNKSt10unique_ptrIN7rocksdb17FilterBitsBuilderESt14default_deleteIS1_EEptEv(ptr noundef nonnull align 8 dereferenceable(8) %0) #4 comdat align 2 {
  %2 = alloca ptr, align 8
  store ptr %0, ptr %2, align 8, !tbaa !104
  %3 = load ptr, ptr %2, align 8
  %4 = call noundef ptr @_ZNKSt10unique_ptrIN7rocksdb17FilterBitsBuilderESt14default_deleteIS1_EE3getEv(ptr noundef nonnull align 8 dereferenceable(8) %3) #5
  ret ptr %4
}

; Function Attrs: mustprogress uwtable
define noundef zeroext i1 @_ZN7rocksdb29PartitionedFilterBlockBuilder21DecideCutAFilterBlockEv(ptr noundef nonnull align 8 dereferenceable(577) %0) #6 align 2 {
  %2 = alloca i1, align 1
  %3 = alloca ptr, align 8
  %4 = alloca i64, align 8
  %5 = alloca i32, align 4
  store ptr %0, ptr %3, align 8, !tbaa !23
  %6 = load ptr, ptr %3, align 8
  call void @llvm.lifetime.start.p0(i64 8, ptr %4) #5
  %7 = getelementptr inbounds nuw %"class.rocksdb::FullFilterBlockBuilder", ptr %6, i32 0, i32 1
  %8 = call noundef ptr @_ZNKSt10unique_ptrIN7rocksdb17FilterBitsBuilderESt14default_deleteIS1_EEptEv(ptr noundef nonnull align 8 dereferenceable(8) %7) #5
  %9 = load ptr, ptr %8, align 8, !tbaa !37
  %10 = getelementptr inbounds ptr, ptr %9, i64 4
  %11 = load ptr, ptr %10, align 8
  %12 = call noundef i64 %11(ptr noundef nonnull align 8 dereferenceable(8) %8)
  store i64 %12, ptr %4, align 8, !tbaa !4
  %13 = getelementptr inbounds nuw %"class.rocksdb::PartitionedFilterBlockBuilder", ptr %6, i32 0, i32 3
  %14 = load i8, ptr %13, align 8, !tbaa !84, !range !35, !noundef !36
  %15 = trunc i8 %14 to i1
  br i1 %15, label %16, label %22

16:                                               ; preds = %1
  %17 = load i64, ptr %4, align 8, !tbaa !4
  %18 = getelementptr inbounds nuw %"class.rocksdb::PartitionedFilterBlockBuilder", ptr %6, i32 0, i32 6
  %19 = load i32, ptr %18, align 8, !tbaa !87
  %20 = zext i32 %19 to i64
  %21 = icmp uge i64 %17, %20
  store i1 %21, ptr %2, align 1
  store i32 1, ptr %5, align 4
  br label %35

22:                                               ; preds = %1
  %23 = load i64, ptr %4, align 8, !tbaa !4
  %24 = getelementptr inbounds nuw %"class.rocksdb::PartitionedFilterBlockBuilder", ptr %6, i32 0, i32 6
  %25 = load i32, ptr %24, align 8, !tbaa !87
  %26 = zext i32 %25 to i64
  %27 = icmp uge i64 %23, %26
  br i1 %27, label %28, label %31

28:                                               ; preds = %22
  %29 = getelementptr inbounds nuw %"class.rocksdb::PartitionedFilterBlockBuilder", ptr %6, i32 0, i32 1
  %30 = load ptr, ptr %29, align 8, !tbaa !39
  call void @_ZN7rocksdb23PartitionedIndexBuilder19RequestPartitionCutEv(ptr noundef nonnull align 8 dereferenceable(488) %30)
  br label %31

31:                                               ; preds = %28, %22
  %32 = getelementptr inbounds nuw %"class.rocksdb::PartitionedFilterBlockBuilder", ptr %6, i32 0, i32 1
  %33 = load ptr, ptr %32, align 8, !tbaa !39
  %34 = call noundef zeroext i1 @_ZN7rocksdb23PartitionedIndexBuilder20ShouldCutFilterBlockEv(ptr noundef nonnull align 8 dereferenceable(488) %33)
  store i1 %34, ptr %2, align 1
  store i32 1, ptr %5, align 4
  br label %35

35:                                               ; preds = %31, %16
  call void @llvm.lifetime.end.p0(i64 8, ptr %4) #5
  %36 = load i1, ptr %2, align 1
  ret i1 %36
}