; Function Attrs: mustprogress uwtable
define noundef zeroext i1 @_ZN7rocksdb29PartitionedFilterBlockBuilder21DecideCutAFilterBlockEv(ptr noundef nonnull readonly align 8 captures(none) dereferenceable(577) %0) local_unnamed_addr #3 align 2 {
  %2 = getelementptr inbounds nuw i8, ptr %0, i64 8
  %3 = load ptr, ptr %2, align 8, !tbaa !71
  %4 = load ptr, ptr %3, align 8, !tbaa !11
  %5 = getelementptr inbounds nuw i8, ptr %4, i64 32
  %6 = load ptr, ptr %5, align 8
  %7 = tail call noundef i64 %6(ptr noundef nonnull align 8 dereferenceable(8) %3)
  %8 = getelementptr inbounds nuw i8, ptr %0, i64 56
  %9 = load i8, ptr %8, align 8, !tbaa !65, !range !97, !noundef !98
  %10 = trunc nuw i8 %9 to i1
  %11 = getelementptr inbounds nuw i8, ptr %0, i64 144
  %12 = load i32, ptr %11, align 8, !tbaa !72
  %13 = zext i32 %12 to i64
  br i1 %10, label %14, label %16

14:                                               ; preds = %1
  %15 = icmp uge i64 %7, %13
  br label %_ZN7rocksdb23PartitionedIndexBuilder20ShouldCutFilterBlockEv.exit

16:                                               ; preds = %1
  %.not = icmp ult i64 %7, %13
  br i1 %.not, label %20, label %17

17:                                               ; preds = %16
  %18 = getelementptr inbounds nuw i8, ptr %0, i64 40
  %19 = load ptr, ptr %18, align 8, !tbaa !13
  tail call void @_ZN7rocksdb23PartitionedIndexBuilder19RequestPartitionCutEv(ptr noundef nonnull align 8 dereferenceable(488) %19)
  br label %20

20:                                               ; preds = %17, %16
  %21 = getelementptr inbounds nuw i8, ptr %0, i64 40
  %22 = load ptr, ptr %21, align 8, !tbaa !13
  %23 = getelementptr inbounds nuw i8, ptr %22, i64 467
  %24 = load i8, ptr %23, align 1, !tbaa !99, !range !97, !noundef !98
  %25 = trunc nuw i8 %24 to i1
  br i1 %25, label %26, label %_ZN7rocksdb23PartitionedIndexBuilder20ShouldCutFilterBlockEv.exit

26:                                               ; preds = %20
  store i8 0, ptr %23, align 1, !tbaa !99
  br label %_ZN7rocksdb23PartitionedIndexBuilder20ShouldCutFilterBlockEv.exit

_ZN7rocksdb23PartitionedIndexBuilder20ShouldCutFilterBlockEv.exit: ; preds = %26, %20, %14
  %.0 = phi i1 [ %15, %14 ], [ false, %20 ], [ true, %26 ]
  ret i1 %.0
}